; Function Attrs: mustprogress uwtable
define void @_ZN8QuantLib25FdHullWhiteSwaptionEngineC2ERKN5boost10shared_ptrINS_9HullWhiteEEEmmmdRKNS_13FdmSchemeDescE(ptr noundef nonnull align 8 dereferenceable(664) %this, ptr noundef nonnull align 8 dereferenceable(16) %model, i64 noundef %tGrid, i64 noundef %xGrid, i64 noundef %dampingSteps, double noundef %invEps, ptr nocapture noundef nonnull readonly align 8 dereferenceable(24) %schemeDesc) unnamed_addr #6 align 2 {
entry:
  tail call void @_ZN8QuantLib18GenericModelEngineINS_9HullWhiteENS_8Swaption9argumentsENS_10Instrument7resultsEEC2ERKN5boost10shared_ptrIS1_EE(ptr noundef nonnull align 8 dereferenceable(608) %this, ptr noundef nonnull align 8 dereferenceable(16) %model)
  store ptr getelementptr inbounds inrange(-16, 56) (i8, ptr @_ZTVN8QuantLib25FdHullWhiteSwaptionEngineE, i64 16), ptr %this, align 8, !tbaa !35
  %add.ptr = getelementptr inbounds i8, ptr %this, i64 56
  store ptr getelementptr inbounds inrange(-16, 32) (i8, ptr @_ZTVN8QuantLib25FdHullWhiteSwaptionEngineE, i64 88), ptr %add.ptr, align 8, !tbaa !35
  %tGrid_ = getelementptr inbounds nuw i8, ptr %this, i64 608
  store i64 %tGrid, ptr %tGrid_, align 8, !tbaa !39
  %xGrid_ = getelementptr inbounds nuw i8, ptr %this, i64 616
  store i64 %xGrid, ptr %xGrid_, align 8, !tbaa !85
  %dampingSteps_ = getelementptr inbounds nuw i8, ptr %this, i64 624
  store i64 %dampingSteps, ptr %dampingSteps_, align 8, !tbaa !86
  %invEps_ = getelementptr inbounds nuw i8, ptr %this, i64 632
  store double %invEps, ptr %invEps_, align 8, !tbaa !87
  %schemeDesc_ = getelementptr inbounds nuw i8, ptr %this, i64 640
  tail call void @llvm.memcpy.p0.p0.i64(ptr noundef nonnull align 8 dereferenceable(24) %schemeDesc_, ptr noundef nonnull align 8 dereferenceable(24) %schemeDesc, i64 24, i1 false), !tbaa.struct !88
  ret void
}